Certificate:
    Data:
        Version: 3 (0x2)
        Serial Number: 4096 (0x1000)
        Signature Algorithm: sha256WithRSAEncryption
        Issuer: C=US, ST=New Jersey, L=Princeton, O=Princeton University, OU=PNI, CN=rtcloud.princeton.edu
        Validity
            Not Before: Jan  1 12:00:00 2023 GMT
            Not After : Jan  1 12:00:00 2024 GMT
        Subject: C=US, ST=New Jersey, L=Princeton, O=Princeton University, OU=PNI, CN=rtcloud.princeton.edu
        Subject Public Key Info:
            Public Key Algorithm: rsaEncryption
                RSA Public-Key: (2048 bit)
                Modulus:
                    00:b0:36:57:8e:dc:05:4e:fa:e8:e8:a7:d1:4c:92:
                    08:48:23:0f:dc:39:84:fd:05:e0:25:8b:49:61:21:
                    c2:f5:a8:40:eb:d6:57:bc:89:53:d7:c9:d9:a3:94:
                    30:d2:07:84:f0:b2:68:06:d0:02:8b:33:1a:66:8e:
                    c1:b5:77:a0:63:5d:1d:6b:57:69:2f:be:d2:79:3a:
                    ec:89:86:04:98:f0:ad:a0:2f:04:cf:5c:08:e4:6e:
                    b6:4b:3c:80:b6:07:8a:ee:5e:7f:cf:15:ec:52:75:
                    d4:54:ef:14:45:68:7a:bd:4b:88:62:ac:5a:4a:32:
                    5f:7d:b6:fc:d8:f6:d7:8f:4c:ea:4b:a0:6f:a7:84:
                    15:45:b5:4f:d7:c8:73:6e:be:41:83:8b:93:28:3e:
                    be:4a:a1:63:40:4b:d5:db:e5:4f:63:15:91:cf:e6:
                    f6:d2:bc:0d:6f:ff:14:3c:b8:be:8f:eb:ac:b0:35:
                    e3:8c:af:d5:8b:a4:26:63:4c:c7:45:cb:bc:1e:47:
                    ff:75:79:31:85:dd:c5:42:c6:d2:34:9a:6e:c5:6a:
                    4d:fb:2a:ec:23:08:fc:ab:c1:f3:ba:3a:7f:3b:b7:
                    aa:37:5d:b4:37:ad:0b:01:6a:41:60:39:b7:56:2e:
                    dc:98:72:ee:8a:e2:73:62:08:b0:8e:86:7c:48:9d:
                    9e:0b
                Exponent: 65537 (0x10001)
        X509v3 extensions:
            X509v3 Basic Constraints: 
                CA:TRUE
            X509v3 Subject Alternative Name: 
                DNS:princeton.edu, DNS:localhost, DNS:localhost, IP Address:127.0.0.1, IP Address:172.29.189.68
    Signature Algorithm: sha256WithRSAEncryption
         58:78:38:69:99:b5:cd:c8:7a:e1:87:e0:3b:f2:63:a6:e4:02:
         22:7c:f4:17:29:af:e1:9c:a9:de:f2:e2:a2:1e:4f:de:08:f7:
         8c:05:87:18:ca:da:7e:3f:d3:e2:2c:28:29:e8:11:8f:91:cf:
         b5:62:ec:55:ce:51:29:9e:22:eb:84:c8:d9:53:4d:85:7d:7c:
         cf:49:a3:24:fc:88:43:3d:df:17:bb:19:66:7a:bb:1f:97:11:
         d0:b3:a3:cb:4c:03:d6:ab:77:68:2f:4b:b1:9a:33:67:7d:a8:
         2e:3e:9b:6d:22:01:18:40:a2:3d:4b:67:9b:7c:8c:61:3e:de:
         35:e3:4f:22:ac:99:d3:54:33:ce:4a:2d:e9:83:d8:3e:07:b1:
         4f:7e:0c:b9:fd:9b:46:56:85:e5:f3:b2:6d:f1:6e:48:30:10:
         e5:e4:67:17:0d:11:ef:94:76:17:19:f1:5f:45:c8:69:7b:08:
         69:e8:be:c4:e7:03:3b:a2:7a:10:ad:71:8b:66:2f:3f:6e:0f:
         f4:37:fe:53:ce:40:60:d0:24:e8:6c:5e:1d:3b:0c:5b:29:10:
         0c:3d:96:19:ac:2c:35:f6:f9:5a:b0:8e:30:73:a0:ce:c3:c5:
         2b:3f:19:44:38:ad:9f:80:b6:8b:b2:7e:ab:70:ba:6f:02:37:
         65:50:eb:41
-----BEGIN CERTIFICATE-----
MIID0DCCArigAwIBAgICEAAwDQYJKoZIhvcNAQELBQAwgYMxCzAJBgNVBAYTAlVT
MRMwEQYDVQQIDApOZXcgSmVyc2V5MRIwEAYDVQQHDAlQcmluY2V0b24xHTAbBgNV
BAoMFFByaW5jZXRvbiBVbml2ZXJzaXR5MQwwCgYDVQQLDANQTkkxHjAcBgNVBAMM
FXJ0Y2xvdWQucHJpbmNldG9uLmVkdTAeFw0yMzAxMDExMjAwMDBaFw0yNDAxMDEx
MjAwMDBaMIGDMQswCQYDVQQGEwJVUzETMBEGA1UECAwKTmV3IEplcnNleTESMBAG
A1UEBwwJUHJpbmNldG9uMR0wGwYDVQQKDBRQcmluY2V0b24gVW5pdmVyc2l0eTEM
MAoGA1UECwwDUE5JMR4wHAYDVQQDDBVydGNsb3VkLnByaW5jZXRvbi5lZHUwggEi
MA0GCSqGSIb3DQEBAQUAA4IBDwAwggEKAoIBAQCwNleO3AVO+ujop9FMkghIIw/c
OYT9BeAli0lhIcL1qEDr1le8iVPXydmjlDDSB4TwsmgG0AKLMxpmjsG1d6BjXR1r
V2kvvtJ5OuyJhgSY8K2gLwTPXAjkbrZLPIC2B4ruXn/PFexSddRU7xRFaHq9S4hi
rFpKMl99tvzY9tePTOpLoG+nhBVFtU/XyHNuvkGDi5MoPr5KoWNAS9Xb5U9jFZHP
5vbSvA1v/xQ8uL6P66ywNeOMr9WLpCZjTMdFy7weR/91eTGF3cVCxtI0mm7Fak37
KuwjCPyrwfO6On87t6o3XbQ3rQsBakFgObdWLtyYcu6K4nNiCLCOhnxInZ4LAgMB
AAGjTDBKMAwGA1UdEwQFMAMBAf8wOgYDVR0RBDMwMYINcHJpbmNldG9uLmVkdYIJ
bG9jYWxob3N0gglsb2NhbGhvc3SHBH8AAAGHBKwdvUQwDQYJKoZIhvcNAQELBQAD
ggEBAFh4OGmZtc3IeuGH4DvyY6bkAiJ89Bcpr+Gcqd7y4qIeT94I94wFhxjK2n4/
0+IsKCnoEY+Rz7Vi7FXOUSmeIuuEyNlTTYV9fM9JoyT8iEM93xe7GWZ6ux+XEdCz
o8tMA9ard2gvS7GaM2d9qC4+m20iARhAoj1LZ5t8jGE+3jXjTyKsmdNUM85KLemD
2D4HsU9+DLn9m0ZWheXzsm3xbkgwEOXkZxcNEe+UdhcZ8V9FyGl7CGnovsTnAzui
ehCtcYtmLz9uD/Q3/lPOQGDQJOhsXh07DFspEAw9lhmsLDX2+VqwjjBzoM7DxSs/
GUQ4rZ+Atouyfqtwum8CN2VQ60E=
-----END CERTIFICATE-----
