Certificate:
    Data:
        Version: 3 (0x2)
        Serial Number: 4096 (0x1000)
        Signature Algorithm: sha256WithRSAEncryption
        Issuer: C=US, ST=New Jersey, L=Princeton, O=Princeton University, OU=PNI, CN=rtcloud.princeton.edu
        Validity
            Not Before: Jan  1 12:00:00 2022 GMT
            Not After : Jan  1 12:00:00 2023 GMT
        Subject: C=US, ST=New Jersey, L=Princeton, O=Princeton University, OU=PNI, CN=rtcloud.princeton.edu
        Subject Public Key Info:
            Public Key Algorithm: rsaEncryption
                RSA Public-Key: (2048 bit)
                Modulus:
                    00:e5:13:b8:eb:59:7b:f6:c2:c9:48:8b:2e:3e:69:
                    df:ad:df:1a:ba:db:63:47:24:ee:db:19:c8:96:5d:
                    27:11:86:e2:0f:4e:98:fa:37:d3:87:63:eb:c2:c4:
                    09:b9:a7:35:16:cc:67:34:e2:9a:23:f7:e0:30:cc:
                    c4:2b:eb:00:c0:aa:08:da:59:ee:6e:20:27:01:ea:
                    fa:21:5d:36:b7:d8:21:59:fd:0e:d0:bb:84:63:37:
                    c1:e9:da:8b:cc:1b:88:f4:ee:1e:f6:e5:89:65:9a:
                    3b:60:18:34:00:73:01:dd:6f:f4:5b:f1:1a:42:ad:
                    9b:ea:31:ba:85:69:5f:63:36:8c:98:46:59:ab:57:
                    84:c4:9d:10:c3:21:2f:5f:ff:a6:58:04:2e:74:9c:
                    be:cd:15:72:0f:d2:99:5d:02:ff:ff:ea:ec:31:62:
                    3b:e9:41:c3:71:22:46:24:1e:02:2f:bc:16:de:05:
                    52:63:f2:33:74:cd:1b:b7:fe:9f:ff:0b:77:1b:1e:
                    ed:d0:af:01:ce:f7:32:b8:03:4d:d4:34:94:fe:bb:
                    0f:b9:f2:8f:66:1e:fd:e9:b1:86:e5:85:34:db:62:
                    30:96:5c:8c:92:ed:32:1e:fd:26:69:bb:fa:ba:3f:
                    d7:79:3c:59:87:e8:3b:1e:4b:3e:23:21:d0:a7:c7:
                    2c:05
                Exponent: 65537 (0x10001)
        X509v3 extensions:
            X509v3 Basic Constraints: 
                CA:TRUE
            X509v3 Subject Alternative Name: 
                DNS:princeton.edu, DNS:localhost, DNS:localhost, IP Address:127.0.0.1, IP Address:172.29.189.151
    Signature Algorithm: sha256WithRSAEncryption
         e2:27:11:b9:c7:6e:a0:f1:5d:8d:5d:e4:ea:d9:6b:cc:a6:05:
         3e:d0:80:80:db:51:af:c2:6b:44:15:96:c8:09:09:40:87:f3:
         5f:b9:27:7d:f7:82:e9:0e:7e:dd:7a:d3:78:9a:0f:d7:c5:bb:
         8d:af:61:fd:9b:91:e5:f6:0d:89:3c:b9:0b:ce:61:51:d4:c8:
         1e:dc:0c:47:9d:36:22:44:3c:f7:e2:fb:18:9d:0c:2a:21:7d:
         50:c8:f4:25:2a:ad:fa:c4:9c:b5:3b:2b:0a:72:e3:28:98:d8:
         a5:22:fc:a6:31:9b:27:b7:fe:49:03:4c:88:5f:f4:81:9b:f2:
         cd:dd:ed:90:bf:1b:a4:a4:fe:53:03:b8:fa:3c:26:7e:ab:e9:
         72:c6:9e:98:0c:a5:b1:b8:3f:6f:7e:a0:88:8c:59:d9:19:0a:
         ef:25:88:e7:dd:f5:2a:2f:a8:7e:c3:3f:1b:48:49:79:e3:41:
         7e:c4:c6:dc:e8:ec:ec:0a:4e:a0:d8:f1:a8:e2:19:13:7f:83:
         01:35:17:e2:41:5d:7e:61:f7:56:c3:37:32:23:f8:2e:d0:bf:
         ce:93:46:8f:c5:aa:8e:c3:ae:06:34:e1:42:60:54:0e:50:71:
         01:c7:55:cf:a4:db:33:6f:06:f8:b5:bb:51:44:cd:6a:50:33:
         7f:3a:b5:40
-----BEGIN CERTIFICATE-----
MIID0DCCArigAwIBAgICEAAwDQYJKoZIhvcNAQELBQAwgYMxCzAJBgNVBAYTAlVT
MRMwEQYDVQQIDApOZXcgSmVyc2V5MRIwEAYDVQQHDAlQcmluY2V0b24xHTAbBgNV
BAoMFFByaW5jZXRvbiBVbml2ZXJzaXR5MQwwCgYDVQQLDANQTkkxHjAcBgNVBAMM
FXJ0Y2xvdWQucHJpbmNldG9uLmVkdTAeFw0yMjAxMDExMjAwMDBaFw0yMzAxMDEx
MjAwMDBaMIGDMQswCQYDVQQGEwJVUzETMBEGA1UECAwKTmV3IEplcnNleTESMBAG
A1UEBwwJUHJpbmNldG9uMR0wGwYDVQQKDBRQcmluY2V0b24gVW5pdmVyc2l0eTEM
MAoGA1UECwwDUE5JMR4wHAYDVQQDDBVydGNsb3VkLnByaW5jZXRvbi5lZHUwggEi
MA0GCSqGSIb3DQEBAQUAA4IBDwAwggEKAoIBAQDlE7jrWXv2wslIiy4+ad+t3xq6
22NHJO7bGciWXScRhuIPTpj6N9OHY+vCxAm5pzUWzGc04poj9+AwzMQr6wDAqgja
We5uICcB6vohXTa32CFZ/Q7Qu4RjN8Hp2ovMG4j07h725YllmjtgGDQAcwHdb/Rb
8RpCrZvqMbqFaV9jNoyYRlmrV4TEnRDDIS9f/6ZYBC50nL7NFXIP0pldAv//6uwx
YjvpQcNxIkYkHgIvvBbeBVJj8jN0zRu3/p//C3cbHu3QrwHO9zK4A03UNJT+uw+5
8o9mHv3psYblhTTbYjCWXIyS7TIe/SZpu/q6P9d5PFmH6DseSz4jIdCnxywFAgMB
AAGjTDBKMAwGA1UdEwQFMAMBAf8wOgYDVR0RBDMwMYINcHJpbmNldG9uLmVkdYIJ
bG9jYWxob3N0gglsb2NhbGhvc3SHBH8AAAGHBKwdvZcwDQYJKoZIhvcNAQELBQAD
ggEBAOInEbnHbqDxXY1d5OrZa8ymBT7QgIDbUa/Ca0QVlsgJCUCH81+5J333gukO
ft1603iaD9fFu42vYf2bkeX2DYk8uQvOYVHUyB7cDEedNiJEPPfi+xidDCohfVDI
9CUqrfrEnLU7Kwpy4yiY2KUi/KYxmye3/kkDTIhf9IGb8s3d7ZC/G6Sk/lMDuPo8
Jn6r6XLGnpgMpbG4P29+oIiMWdkZCu8liOfd9SovqH7DPxtISXnjQX7Extzo7OwK
TqDY8ajiGRN/gwE1F+JBXX5h91bDNzIj+C7Qv86TRo/Fqo7DrgY04UJgVA5QcQHH
Vc+k2zNvBvi1u1FEzWpQM386tUA=
-----END CERTIFICATE-----
