Certificate:
    Data:
        Version: 3 (0x2)
        Serial Number: 4096 (0x1000)
        Signature Algorithm: sha256WithRSAEncryption
        Issuer: C=US, ST=New Jersey, L=Princeton, O=Princeton University, OU=PNI, CN=rtcloud.princeton.edu
        Validity
            Not Before: Jan  1 12:00:00 2022 GMT
            Not After : Jan  1 12:00:00 2023 GMT
        Subject: C=US, ST=New Jersey, L=Princeton, O=Princeton University, OU=PNI, CN=rtcloud.princeton.edu
        Subject Public Key Info:
            Public Key Algorithm: rsaEncryption
                RSA Public-Key: (2048 bit)
                Modulus:
                    00:cc:00:16:1e:9d:eb:1a:6d:d9:b2:7f:75:ea:ce:
                    fc:f1:13:bc:bc:90:3b:88:20:a4:44:39:f7:aa:4f:
                    07:51:e9:2b:de:2a:d4:22:c0:c6:0a:58:b0:b8:4c:
                    37:19:93:f4:45:2f:53:c9:fe:47:e9:78:81:3e:69:
                    b8:b7:0d:c6:79:17:b4:26:29:88:a3:53:af:d3:60:
                    bd:ee:b6:9c:8c:c2:69:8b:58:41:40:2d:e9:ff:9e:
                    57:9a:4a:1f:57:ff:dd:25:7c:ee:f0:1f:86:b0:12:
                    00:83:f9:6f:d9:8a:f8:6d:8f:df:9a:a2:87:e6:8d:
                    3a:a1:23:59:bc:42:fc:c1:98:6a:06:3a:c6:bf:7d:
                    5b:f3:68:dd:2a:74:c4:00:0c:a0:eb:1d:f3:bc:b0:
                    c5:95:ff:75:41:4a:e6:78:67:de:5b:f5:63:a8:b2:
                    e2:2f:4f:dc:5e:89:04:73:2a:ca:ed:aa:00:5e:19:
                    65:74:e4:fd:86:8e:88:4f:b0:a9:e9:47:01:6d:e8:
                    94:1a:92:83:6c:c9:b7:ea:26:44:6d:3f:28:a4:06:
                    0f:59:c8:ff:1b:48:b2:d6:74:9b:11:1f:54:c0:7e:
                    25:aa:04:fc:c3:cf:db:86:99:b6:7d:99:2a:e5:7d:
                    f9:30:1e:ef:d8:96:18:ef:56:01:23:b1:a3:a4:2f:
                    00:5f
                Exponent: 65537 (0x10001)
        X509v3 extensions:
            X509v3 Basic Constraints: 
                CA:TRUE
            X509v3 Subject Alternative Name: 
                DNS:princeton.edu, DNS:localhost, DNS:localhost, IP Address:127.0.0.1, IP Address:172.29.189.151
    Signature Algorithm: sha256WithRSAEncryption
         47:e5:d5:dc:88:d0:54:f7:38:1c:4e:bd:91:9f:83:f2:60:17:
         1e:5d:30:9e:3e:5d:88:44:84:52:fd:88:fa:da:63:ab:79:ca:
         7e:a2:d5:39:ac:72:ec:86:c2:e3:06:bd:72:b1:b1:b7:d5:b1:
         e8:0b:a1:88:16:16:f9:ec:2b:2c:cb:11:5e:a6:44:94:cb:6f:
         9d:cb:f7:aa:26:e6:92:0c:62:67:4c:d8:98:11:48:05:0c:ec:
         dd:47:2c:1d:31:2b:3a:96:3c:b8:ba:1d:12:b4:4c:3f:b8:48:
         12:ad:b4:05:ae:33:41:05:8a:22:9c:2d:4b:76:66:a7:12:00:
         5f:f7:f4:9c:84:fe:9a:ad:a2:c6:ae:d2:93:4c:b5:61:90:7b:
         94:01:a5:60:dd:41:6e:56:1f:7c:c3:6c:80:1f:7e:ca:4b:2b:
         ab:f9:a1:b8:db:4e:cf:b2:2e:82:30:f0:fe:25:5a:a5:3f:be:
         99:db:a2:99:12:70:6f:0d:33:14:4e:be:20:88:5c:ec:f6:ce:
         37:d7:21:33:c2:0c:e5:4d:79:63:d5:01:20:db:85:b8:c8:01:
         3a:72:22:e3:85:d7:0c:9f:50:a9:a7:48:9e:40:c7:e1:1e:f1:
         9f:b2:c1:b4:0d:d9:c1:25:f5:eb:e3:23:13:66:bf:fe:37:c7:
         f7:a4:bb:9b
-----BEGIN CERTIFICATE-----
MIID0DCCArigAwIBAgICEAAwDQYJKoZIhvcNAQELBQAwgYMxCzAJBgNVBAYTAlVT
MRMwEQYDVQQIDApOZXcgSmVyc2V5MRIwEAYDVQQHDAlQcmluY2V0b24xHTAbBgNV
BAoMFFByaW5jZXRvbiBVbml2ZXJzaXR5MQwwCgYDVQQLDANQTkkxHjAcBgNVBAMM
FXJ0Y2xvdWQucHJpbmNldG9uLmVkdTAeFw0yMjAxMDExMjAwMDBaFw0yMzAxMDEx
MjAwMDBaMIGDMQswCQYDVQQGEwJVUzETMBEGA1UECAwKTmV3IEplcnNleTESMBAG
A1UEBwwJUHJpbmNldG9uMR0wGwYDVQQKDBRQcmluY2V0b24gVW5pdmVyc2l0eTEM
MAoGA1UECwwDUE5JMR4wHAYDVQQDDBVydGNsb3VkLnByaW5jZXRvbi5lZHUwggEi
MA0GCSqGSIb3DQEBAQUAA4IBDwAwggEKAoIBAQDMABYenesabdmyf3XqzvzxE7y8
kDuIIKREOfeqTwdR6SveKtQiwMYKWLC4TDcZk/RFL1PJ/kfpeIE+abi3DcZ5F7Qm
KYijU6/TYL3utpyMwmmLWEFALen/nleaSh9X/90lfO7wH4awEgCD+W/Zivhtj9+a
oofmjTqhI1m8QvzBmGoGOsa/fVvzaN0qdMQADKDrHfO8sMWV/3VBSuZ4Z95b9WOo
suIvT9xeiQRzKsrtqgBeGWV05P2GjohPsKnpRwFt6JQakoNsybfqJkRtPyikBg9Z
yP8bSLLWdJsRH1TAfiWqBPzDz9uGmbZ9mSrlffkwHu/YlhjvVgEjsaOkLwBfAgMB
AAGjTDBKMAwGA1UdEwQFMAMBAf8wOgYDVR0RBDMwMYINcHJpbmNldG9uLmVkdYIJ
bG9jYWxob3N0gglsb2NhbGhvc3SHBH8AAAGHBKwdvZcwDQYJKoZIhvcNAQELBQAD
ggEBAEfl1dyI0FT3OBxOvZGfg/JgFx5dMJ4+XYhEhFL9iPraY6t5yn6i1TmscuyG
wuMGvXKxsbfVsegLoYgWFvnsKyzLEV6mRJTLb53L96om5pIMYmdM2JgRSAUM7N1H
LB0xKzqWPLi6HRK0TD+4SBKttAWuM0EFiiKcLUt2ZqcSAF/39JyE/pqtosau0pNM
tWGQe5QBpWDdQW5WH3zDbIAffspLK6v5objbTs+yLoIw8P4lWqU/vpnbopkScG8N
MxROviCIXOz2zjfXITPCDOVNeWPVASDbhbjIATpyIuOF1wyfUKmnSJ5Ax+Ee8Z+y
wbQN2cEl9evjIxNmv/43x/eku5s=
-----END CERTIFICATE-----
