Certificate:
    Data:
        Version: 3 (0x2)
        Serial Number: 4096 (0x1000)
        Signature Algorithm: sha256WithRSAEncryption
        Issuer: C=US, ST=New Jersey, L=Princeton, O=Princeton University, OU=PNI, CN=rtcloud.princeton.edu
        Validity
            Not Before: Jan  1 12:00:00 2023 GMT
            Not After : Jan  1 12:00:00 2024 GMT
        Subject: C=US, ST=New Jersey, L=Princeton, O=Princeton University, OU=PNI, CN=rtcloud.princeton.edu
        Subject Public Key Info:
            Public Key Algorithm: rsaEncryption
                RSA Public-Key: (2048 bit)
                Modulus:
                    00:9a:eb:bd:c8:65:65:f9:f4:32:13:a6:4c:b3:62:
                    26:72:81:5c:97:f0:52:c2:7d:bd:c9:11:e0:db:3c:
                    f1:99:6c:56:0f:22:cf:24:92:9c:23:94:89:7a:ac:
                    ae:ee:3b:70:b5:03:13:33:d7:9d:4b:8c:e8:95:bc:
                    2a:fa:4b:d9:0c:47:12:0e:06:21:36:be:3b:c9:2a:
                    51:4e:82:6a:45:70:1f:c2:db:dd:fa:54:11:55:fc:
                    c9:76:d6:37:26:56:51:50:f8:8f:bd:d1:61:5d:d4:
                    86:8e:b6:d0:7b:a1:c8:40:98:e9:44:ad:d6:b5:d2:
                    d5:d6:7b:f7:35:6f:b1:73:62:5b:fa:4a:cd:56:af:
                    11:cb:27:5d:ad:0d:f3:52:c0:c1:41:5b:7b:0f:cd:
                    15:2f:27:aa:f3:40:f9:1a:6c:7c:d0:88:2b:51:8e:
                    f0:0d:30:13:97:7b:fa:ca:19:20:a4:2d:d0:2e:b6:
                    2c:69:22:41:d9:87:5b:f1:d8:ad:ce:2e:14:95:58:
                    3c:bc:ce:16:c6:aa:5c:cc:97:f6:ba:02:d7:6e:6f:
                    ee:34:0e:c6:39:11:5f:7e:1d:c9:c6:4e:58:5a:d9:
                    1f:ad:34:2f:81:44:22:07:cd:58:d9:51:3c:07:e9:
                    e1:3f:f7:5a:75:d4:e9:e7:9d:e0:ad:d6:6b:d4:3b:
                    77:f9
                Exponent: 65537 (0x10001)
        X509v3 extensions:
            X509v3 Basic Constraints: 
                CA:TRUE
            X509v3 Subject Alternative Name: 
                DNS:princeton.edu, DNS:localhost, DNS:localhost, IP Address:127.0.0.1, IP Address:172.29.189.151
    Signature Algorithm: sha256WithRSAEncryption
         46:19:63:cc:f7:f2:95:4c:0f:62:02:79:22:07:ea:2c:8c:f3:
         ee:c2:49:41:ef:8b:9e:32:f9:f2:00:79:f4:91:05:f4:76:f3:
         71:0d:95:37:1e:62:5d:77:c7:d2:30:f9:d3:91:7f:10:a2:15:
         72:a2:fd:93:ba:65:57:6e:4d:e2:0e:94:b1:9e:3f:48:43:0b:
         bf:46:00:f1:04:38:1c:ba:57:c5:00:92:0a:2a:fe:e4:4b:59:
         57:aa:0e:35:37:5c:e7:88:be:da:0e:fe:b4:0d:b3:9e:b1:3b:
         bf:eb:63:7d:14:09:0a:aa:69:9c:b6:db:88:c6:24:9c:04:c9:
         25:2d:49:e0:e4:a6:f9:52:11:8a:e3:75:60:a0:cf:e5:34:71:
         09:bd:41:c5:a6:82:83:b7:a1:2f:bd:c8:10:37:39:a9:52:6d:
         04:cd:7a:45:f1:e3:84:d2:87:1f:24:37:36:0f:ad:ab:86:e0:
         ea:72:a0:f8:6d:71:90:c0:a5:60:e0:79:5b:51:13:5e:10:4f:
         dd:3d:5f:56:18:ed:4f:66:1e:f2:00:b7:c6:77:91:ce:43:be:
         1e:39:93:81:30:ab:cf:d2:1a:25:9e:71:88:a4:ed:c4:d8:bb:
         9e:fc:0c:26:a3:07:11:63:99:2f:7e:e7:55:77:df:d3:d7:a2:
         9c:19:db:d1
-----BEGIN CERTIFICATE-----
MIID0DCCArigAwIBAgICEAAwDQYJKoZIhvcNAQELBQAwgYMxCzAJBgNVBAYTAlVT
MRMwEQYDVQQIDApOZXcgSmVyc2V5MRIwEAYDVQQHDAlQcmluY2V0b24xHTAbBgNV
BAoMFFByaW5jZXRvbiBVbml2ZXJzaXR5MQwwCgYDVQQLDANQTkkxHjAcBgNVBAMM
FXJ0Y2xvdWQucHJpbmNldG9uLmVkdTAeFw0yMzAxMDExMjAwMDBaFw0yNDAxMDEx
MjAwMDBaMIGDMQswCQYDVQQGEwJVUzETMBEGA1UECAwKTmV3IEplcnNleTESMBAG
A1UEBwwJUHJpbmNldG9uMR0wGwYDVQQKDBRQcmluY2V0b24gVW5pdmVyc2l0eTEM
MAoGA1UECwwDUE5JMR4wHAYDVQQDDBVydGNsb3VkLnByaW5jZXRvbi5lZHUwggEi
MA0GCSqGSIb3DQEBAQUAA4IBDwAwggEKAoIBAQCa673IZWX59DITpkyzYiZygVyX
8FLCfb3JEeDbPPGZbFYPIs8kkpwjlIl6rK7uO3C1AxMz151LjOiVvCr6S9kMRxIO
BiE2vjvJKlFOgmpFcB/C2936VBFV/Ml21jcmVlFQ+I+90WFd1IaOttB7ochAmOlE
rda10tXWe/c1b7FzYlv6Ss1WrxHLJ12tDfNSwMFBW3sPzRUvJ6rzQPkabHzQiCtR
jvANMBOXe/rKGSCkLdAutixpIkHZh1vx2K3OLhSVWDy8zhbGqlzMl/a6Atdub+40
DsY5EV9+HcnGTlha2R+tNC+BRCIHzVjZUTwH6eE/91p11OnnneCt1mvUO3f5AgMB
AAGjTDBKMAwGA1UdEwQFMAMBAf8wOgYDVR0RBDMwMYINcHJpbmNldG9uLmVkdYIJ
bG9jYWxob3N0gglsb2NhbGhvc3SHBH8AAAGHBKwdvZcwDQYJKoZIhvcNAQELBQAD
ggEBAEYZY8z38pVMD2ICeSIH6iyM8+7CSUHvi54y+fIAefSRBfR283ENlTceYl13
x9Iw+dORfxCiFXKi/ZO6ZVduTeIOlLGeP0hDC79GAPEEOBy6V8UAkgoq/uRLWVeq
DjU3XOeIvtoO/rQNs56xO7/rY30UCQqqaZy224jGJJwEySUtSeDkpvlSEYrjdWCg
z+U0cQm9QcWmgoO3oS+9yBA3OalSbQTNekXx44TShx8kNzYPrauG4OpyoPhtcZDA
pWDgeVtRE14QT909X1YY7U9mHvIAt8Z3kc5Dvh45k4Ewq8/SGiWecYik7cTYu578
DCajBxFjmS9+51V339PXopwZ29E=
-----END CERTIFICATE-----
